target datalayout = "e-m:e-p270:32:32-p271:32:32-p272:64:64-i64:64-i128:128-f80:128-n8:16:32:64-S128"
target triple = "x86_64-pc-linux-gnu"

%struct.Res_Sim_t_ = type { ptr, i32, i32, i32, i32, i32, i32, i32, i32, i32, i32, ptr, ptr, ptr, ptr, i32, i32, ptr, i64 }
%struct.Vec_Ptr_t_ = type { i32, i32, ptr }
%struct.Abc_Ntk_t_ = type { i32, i32, ptr, ptr, ptr, ptr, ptr, ptr, ptr, ptr, ptr, ptr, ptr, [11 x i32], i32, i32, i32, i32, ptr, i32, ptr, ptr, i32, i32, i32, double, i32, %struct.Vec_Int_t_, ptr, ptr, ptr, ptr, ptr, float, i32, ptr, ptr, ptr, ptr, ptr, ptr, ptr, ptr, ptr, ptr, ptr, ptr, ptr, ptr, ptr, ptr, ptr, ptr, ptr, ptr, ptr, ptr }
%struct.Vec_Int_t_ = type { i32, i32, ptr }
%struct.Abc_Obj_t_ = type { ptr, ptr, i32, i32, %struct.Vec_Int_t_, %struct.Vec_Int_t_, %union.anon, %union.anon.0 }
%union.anon = type { ptr }
%union.anon.0 = type { ptr }

@.str.1 = private unnamed_addr constant [16 x i8] c"Dc = %7.2f %%  \00", align 1
@.str.2 = private unnamed_addr constant [16 x i8] c"On = %7.2f %%  \00", align 1
@.str.3 = private unnamed_addr constant [17 x i8] c"Off = %7.2f %%  \00", align 1

; Function Attrs: inlinehint nounwind uwtable
define internal ptr @Vec_PtrEntry(ptr noundef %0, i32 noundef %1) #4 {
  %3 = alloca ptr, align 8
  %4 = alloca i32, align 4
  store ptr %0, ptr %3, align 8, !tbaa !44
  store i32 %1, ptr %4, align 4, !tbaa !3
  %5 = load ptr, ptr %3, align 8, !tbaa !44
  %6 = getelementptr inbounds nuw %struct.Vec_Ptr_t_, ptr %5, i32 0, i32 2
  %7 = load ptr, ptr %6, align 8, !tbaa !61
  %8 = load i32, ptr %4, align 4, !tbaa !3
  %9 = sext i32 %8 to i64
  %10 = getelementptr inbounds ptr, ptr %7, i64 %9
  %11 = load ptr, ptr %10, align 8, !tbaa !27
  ret ptr %11
}

; Function Attrs: inlinehint nounwind uwtable
define internal ptr @Abc_NtkPo(ptr noundef %0, i32 noundef %1) #4 {
  %3 = alloca ptr, align 8
  %4 = alloca i32, align 4
  store ptr %0, ptr %3, align 8, !tbaa !37
  store i32 %1, ptr %4, align 4, !tbaa !3
  %5 = load ptr, ptr %3, align 8, !tbaa !37
  %6 = getelementptr inbounds nuw %struct.Abc_Ntk_t_, ptr %5, i32 0, i32 7
  %7 = load ptr, ptr %6, align 8, !tbaa !62
  %8 = load i32, ptr %4, align 4, !tbaa !3
  %9 = call ptr @Vec_PtrEntry(ptr noundef %7, i32 noundef %8)
  ret ptr %9
}

; Function Attrs: nounwind uwtable
define void @Res_SimCountResults(ptr noundef %0, ptr noundef %1, ptr noundef %2, ptr noundef %3, i32 noundef %4) #0 {
  %6 = alloca ptr, align 8
  %7 = alloca ptr, align 8
  %8 = alloca ptr, align 8
  %9 = alloca ptr, align 8
  %10 = alloca i32, align 4
  %11 = alloca ptr, align 8
  %12 = alloca ptr, align 8
  %13 = alloca i32, align 4
  %14 = alloca i32, align 4
  store ptr %0, ptr %6, align 8, !tbaa !7
  store ptr %1, ptr %7, align 8, !tbaa !28
  store ptr %2, ptr %8, align 8, !tbaa !28
  store ptr %3, ptr %9, align 8, !tbaa !28
  store i32 %4, ptr %10, align 4, !tbaa !3
  call void @llvm.lifetime.start.p0(i64 8, ptr %11) #7
  call void @llvm.lifetime.start.p0(i64 8, ptr %12) #7
  call void @llvm.lifetime.start.p0(i64 4, ptr %13) #7
  call void @llvm.lifetime.start.p0(i64 4, ptr %14) #7
  store i32 0, ptr %14, align 4, !tbaa !3
  %15 = load ptr, ptr %6, align 8, !tbaa !7
  %16 = getelementptr inbounds nuw %struct.Res_Sim_t_, ptr %15, i32 0, i32 11
  %17 = load ptr, ptr %16, align 8, !tbaa !22
  %18 = load ptr, ptr %6, align 8, !tbaa !7
  %19 = getelementptr inbounds nuw %struct.Res_Sim_t_, ptr %18, i32 0, i32 0
  %20 = load ptr, ptr %19, align 8, !tbaa !38
  %21 = call ptr @Abc_NtkPo(ptr noundef %20, i32 noundef 0)
  %22 = getelementptr inbounds nuw %struct.Abc_Obj_t_, ptr %21, i32 0, i32 2
  %23 = load i32, ptr %22, align 8, !tbaa !67
  %24 = call ptr @Vec_PtrEntry(ptr noundef %17, i32 noundef %23)
  store ptr %24, ptr %11, align 8, !tbaa !73
  %25 = load ptr, ptr %6, align 8, !tbaa !7
  %26 = getelementptr inbounds nuw %struct.Res_Sim_t_, ptr %25, i32 0, i32 11
  %27 = load ptr, ptr %26, align 8, !tbaa !22
  %28 = load ptr, ptr %6, align 8, !tbaa !7
  %29 = getelementptr inbounds nuw %struct.Res_Sim_t_, ptr %28, i32 0, i32 0
  %30 = load ptr, ptr %29, align 8, !tbaa !38
  %31 = call ptr @Abc_NtkPo(ptr noundef %30, i32 noundef 1)
  %32 = getelementptr inbounds nuw %struct.Abc_Obj_t_, ptr %31, i32 0, i32 2
  %33 = load i32, ptr %32, align 8, !tbaa !67
  %34 = call ptr @Vec_PtrEntry(ptr noundef %27, i32 noundef %33)
  store ptr %34, ptr %12, align 8, !tbaa !73
  store i32 0, ptr %13, align 4, !tbaa !3
  br label %35

35:                                               ; preds = %69, %5
  %36 = load i32, ptr %13, align 4, !tbaa !3
  %37 = load ptr, ptr %6, align 8, !tbaa !7
  %38 = getelementptr inbounds nuw %struct.Res_Sim_t_, ptr %37, i32 0, i32 8
  %39 = load i32, ptr %38, align 4, !tbaa !18
  %40 = icmp slt i32 %36, %39
  br i1 %40, label %41, label %72

41:                                               ; preds = %35
  %42 = load ptr, ptr %11, align 8, !tbaa !73
  %43 = load i32, ptr %13, align 4, !tbaa !3
  %44 = sext i32 %43 to i64
  %45 = getelementptr inbounds i8, ptr %42, i64 %44
  %46 = load i8, ptr %45, align 1, !tbaa !74
  %47 = icmp ne i8 %46, 0
  br i1 %47, label %52, label %48

48:                                               ; preds = %41
  %49 = load ptr, ptr %7, align 8, !tbaa !28
  %50 = load i32, ptr %49, align 4, !tbaa !3
  %51 = add nsw i32 %50, 1
  store i32 %51, ptr %49, align 4, !tbaa !3
  br label %68

52:                                               ; preds = %41
  %53 = load ptr, ptr %12, align 8, !tbaa !73
  %54 = load i32, ptr %13, align 4, !tbaa !3
  %55 = sext i32 %54 to i64
  %56 = getelementptr inbounds i8, ptr %53, i64 %55
  %57 = load i8, ptr %56, align 1, !tbaa !74
  %58 = icmp ne i8 %57, 0
  br i1 %58, label %63, label %59

59:                                               ; preds = %52
  %60 = load ptr, ptr %9, align 8, !tbaa !28
  %61 = load i32, ptr %60, align 4, !tbaa !3
  %62 = add nsw i32 %61, 1
  store i32 %62, ptr %60, align 4, !tbaa !3
  br label %67

63:                                               ; preds = %52
  %64 = load ptr, ptr %8, align 8, !tbaa !28
  %65 = load i32, ptr %64, align 4, !tbaa !3
  %66 = add nsw i32 %65, 1
  store i32 %66, ptr %64, align 4, !tbaa !3
  br label %67

67:                                               ; preds = %63, %59
  br label %68

68:                                               ; preds = %67, %48
  br label %69

69:                                               ; preds = %68
  %70 = load i32, ptr %13, align 4, !tbaa !3
  %71 = add nsw i32 %70, 1
  store i32 %71, ptr %13, align 4, !tbaa !3
  br label %35, !llvm.loop !108

72:                                               ; preds = %35
  %73 = load ptr, ptr %7, align 8, !tbaa !28
  %74 = load i32, ptr %73, align 4, !tbaa !3
  %75 = load i32, ptr %14, align 4, !tbaa !3
  %76 = add nsw i32 %75, %74
  store i32 %76, ptr %14, align 4, !tbaa !3
  %77 = load ptr, ptr %9, align 8, !tbaa !28
  %78 = load i32, ptr %77, align 4, !tbaa !3
  %79 = load i32, ptr %14, align 4, !tbaa !3
  %80 = add nsw i32 %79, %78
  store i32 %80, ptr %14, align 4, !tbaa !3
  %81 = load ptr, ptr %8, align 8, !tbaa !28
  %82 = load i32, ptr %81, align 4, !tbaa !3
  %83 = load i32, ptr %14, align 4, !tbaa !3
  %84 = add nsw i32 %83, %82
  store i32 %84, ptr %14, align 4, !tbaa !3
  %85 = load i32, ptr %10, align 4, !tbaa !3
  %86 = icmp ne i32 %85, 0
  br i1 %86, label %87, label %112

87:                                               ; preds = %72
  %88 = load ptr, ptr %7, align 8, !tbaa !28
  %89 = load i32, ptr %88, align 4, !tbaa !3
  %90 = sitofp i32 %89 to double
  %91 = fmul double 1.000000e+02, %90
  %92 = load i32, ptr %14, align 4, !tbaa !3
  %93 = sitofp i32 %92 to double
  %94 = fdiv double %91, %93
  %95 = call i32 (ptr, ...) @printf(ptr noundef @.str.1, double noundef %94)
  %96 = load ptr, ptr %8, align 8, !tbaa !28
  %97 = load i32, ptr %96, align 4, !tbaa !3
  %98 = sitofp i32 %97 to double
  %99 = fmul double 1.000000e+02, %98
  %100 = load i32, ptr %14, align 4, !tbaa !3
  %101 = sitofp i32 %100 to double
  %102 = fdiv double %99, %101
  %103 = call i32 (ptr, ...) @printf(ptr noundef @.str.2, double noundef %102)
  %104 = load ptr, ptr %9, align 8, !tbaa !28
  %105 = load i32, ptr %104, align 4, !tbaa !3
  %106 = sitofp i32 %105 to double
  %107 = fmul double 1.000000e+02, %106
  %108 = load i32, ptr %14, align 4, !tbaa !3
  %109 = sitofp i32 %108 to double
  %110 = fdiv double %107, %109
  %111 = call i32 (ptr, ...) @printf(ptr noundef @.str.3, double noundef %110)
  br label %112

112:                                              ; preds = %87, %72
  call void @llvm.lifetime.end.p0(i64 4, ptr %14) #7
  call void @llvm.lifetime.end.p0(i64 4, ptr %13) #7
  call void @llvm.lifetime.end.p0(i64 8, ptr %12) #7
  call void @llvm.lifetime.end.p0(i64 8, ptr %11) #7
  ret void
}