; Function Attrs: nofree nounwind uwtable
define void @Res_SimCountResults(ptr noundef readonly captures(none) %0, ptr noundef captures(none) %1, ptr noundef captures(none) %2, ptr noundef captures(none) %3, i32 noundef %4) local_unnamed_addr #10 {
  %6 = getelementptr inbounds nuw i8, ptr %0, i64 48
  %7 = load ptr, ptr %6, align 8, !tbaa !26
  %8 = load ptr, ptr %0, align 8, !tbaa !36
  %9 = getelementptr i8, ptr %8, i64 48
  %.val30 = load ptr, ptr %9, align 8, !tbaa !53
  %10 = getelementptr i8, ptr %.val30, i64 8
  %.val30.val = load ptr, ptr %10, align 8, !tbaa !25
  %11 = load ptr, ptr %.val30.val, align 8, !tbaa !19
  %12 = getelementptr inbounds nuw i8, ptr %11, i64 16
  %13 = load i32, ptr %12, align 8, !tbaa !62
  %14 = getelementptr i8, ptr %7, i64 8
  %.val28 = load ptr, ptr %14, align 8, !tbaa !25
  %15 = sext i32 %13 to i64
  %16 = getelementptr inbounds ptr, ptr %.val28, i64 %15
  %17 = load ptr, ptr %16, align 8, !tbaa !19
  %18 = getelementptr inbounds nuw i8, ptr %.val30.val, i64 8
  %19 = load ptr, ptr %18, align 8, !tbaa !19
  %20 = getelementptr inbounds nuw i8, ptr %19, i64 16
  %21 = load i32, ptr %20, align 8, !tbaa !62
  %22 = sext i32 %21 to i64
  %23 = getelementptr inbounds ptr, ptr %.val28, i64 %22
  %24 = load ptr, ptr %23, align 8, !tbaa !19
  %25 = getelementptr inbounds nuw i8, ptr %0, i64 36
  %26 = load i32, ptr %25, align 4, !tbaa !15
  %27 = icmp sgt i32 %26, 0
  br i1 %27, label %.lr.ph, label %._crit_edge

.lr.ph:                                           ; preds = %5, %33
  %indvars.iv = phi i64 [ %indvars.iv.next, %33 ], [ 0, %5 ]
  %28 = getelementptr inbounds nuw i8, ptr %17, i64 %indvars.iv
  %29 = load i8, ptr %28, align 1, !tbaa !69
  %.not26 = icmp eq i8 %29, 0
  br i1 %.not26, label %33, label %30

30:                                               ; preds = %.lr.ph
  %31 = getelementptr inbounds nuw i8, ptr %24, i64 %indvars.iv
  %32 = load i8, ptr %31, align 1, !tbaa !69
  %.not27 = icmp eq i8 %32, 0
  %. = select i1 %.not27, ptr %3, ptr %2
  br label %33

33:                                               ; preds = %30, %.lr.ph
  %.sink = phi ptr [ %1, %.lr.ph ], [ %., %30 ]
  %34 = load i32, ptr %.sink, align 4, !tbaa !59
  %35 = add nsw i32 %34, 1
  store i32 %35, ptr %.sink, align 4, !tbaa !59
  %indvars.iv.next = add nuw nsw i64 %indvars.iv, 1
  %36 = load i32, ptr %25, align 4, !tbaa !15
  %37 = sext i32 %36 to i64
  %38 = icmp slt i64 %indvars.iv.next, %37
  br i1 %38, label %.lr.ph, label %._crit_edge, !llvm.loop !107

._crit_edge:                                      ; preds = %33, %5
  %.not = icmp eq i32 %4, 0
  br i1 %.not, label %60, label %39

39:                                               ; preds = %._crit_edge
  %40 = load i32, ptr %1, align 4, !tbaa !59
  %41 = load i32, ptr %3, align 4, !tbaa !59
  %42 = add nsw i32 %41, %40
  %43 = load i32, ptr %2, align 4, !tbaa !59
  %44 = add nsw i32 %42, %43
  %45 = sitofp i32 %40 to double
  %46 = fmul double %45, 1.000000e+02
  %47 = sitofp i32 %44 to double
  %48 = fdiv double %46, %47
  %49 = tail call i32 (ptr, ...) @printf(ptr noundef nonnull dereferenceable(1) @.str.1, double noundef %48)
  %50 = load i32, ptr %2, align 4, !tbaa !59
  %51 = sitofp i32 %50 to double
  %52 = fmul double %51, 1.000000e+02
  %53 = fdiv double %52, %47
  %54 = tail call i32 (ptr, ...) @printf(ptr noundef nonnull dereferenceable(1) @.str.2, double noundef %53)
  %55 = load i32, ptr %3, align 4, !tbaa !59
  %56 = sitofp i32 %55 to double
  %57 = fmul double %56, 1.000000e+02
  %58 = fdiv double %57, %47
  %59 = tail call i32 (ptr, ...) @printf(ptr noundef nonnull dereferenceable(1) @.str.3, double noundef %58)
  br label %60

60:                                               ; preds = %39, %._crit_edge
  ret void
}